; Function Attrs: nounwind uwtable
define dso_local ptr @repo_git_path(ptr noundef readonly captures(none) %0, ptr noundef %1, ...) local_unnamed_addr #3 {
  %3 = alloca %struct.strbuf, align 8
  %4 = alloca [1 x %struct.__va_list_tag], align 16
  call void @llvm.lifetime.start.p0(i64 24, ptr nonnull %3) #29
  call void @llvm.memcpy.p0.p0.i64(ptr noundef nonnull align 8 dereferenceable(24) %3, ptr noundef nonnull align 8 dereferenceable(24) @__const.do_submodule_path.git_submodule_dir, i64 24, i1 false)
  call void @llvm.lifetime.start.p0(i64 24, ptr nonnull %4) #29
  call void @llvm.va_start.p0(ptr nonnull %4)
  call void @repo_git_pathv(ptr noundef %0, ptr noundef null, ptr noundef nonnull %3, ptr noundef %1, ptr noundef nonnull %4)
  call void @llvm.va_end.p0(ptr nonnull %4)
  %5 = call ptr @strbuf_detach(ptr noundef nonnull %3, ptr noundef null) #29
  call void @llvm.lifetime.end.p0(i64 24, ptr nonnull %4) #29
  call void @llvm.lifetime.end.p0(i64 24, ptr nonnull %3) #29
  ret ptr %5
}